target datalayout = "e-m:e-p270:32:32-p271:32:32-p272:64:64-i64:64-i128:128-f80:128-n8:16:32:64-S128"
target triple = "x86_64-pc-linux-gnu"

@ssh_debug_file = internal global ptr null, align 8
@.str.481 = private unnamed_addr constant [8 x i8] c"%s[%d]\0A\00", align 1
@.str.482 = private unnamed_addr constant [7 x i8] c"%04u: \00", align 1
@.str.483 = private unnamed_addr constant [6 x i8] c"%.2x \00", align 1
@.str.484 = private unnamed_addr constant [4 x i8] c"   \00", align 1
@g_ascii_table = external constant ptr, align 8
@.str.485 = private unnamed_addr constant [2 x i8] c"\0A\00", align 1

; Function Attrs: nounwind uwtable
define internal void @ssh_print_data(ptr noundef %0, ptr noundef %1, i64 noundef %2) #0 {
  %4 = alloca ptr, align 8
  %5 = alloca ptr, align 8
  %6 = alloca i64, align 8
  %7 = alloca i64, align 8
  %8 = alloca i64, align 8
  %9 = alloca i64, align 8
  %10 = alloca i8, align 1
  store ptr %0, ptr %4, align 8
  store ptr %1, ptr %5, align 8
  store i64 %2, ptr %6, align 8
  %11 = load ptr, ptr @ssh_debug_file, align 8
  %12 = icmp ne ptr %11, null
  br i1 %12, label %14, label %13

13:                                               ; preds = %3
  br label %109

14:                                               ; preds = %3
  %15 = load ptr, ptr @ssh_debug_file, align 8
  %16 = load ptr, ptr %4, align 8
  %17 = load i64, ptr %6, align 8
  %18 = trunc i64 %17 to i32
  %19 = call i32 (ptr, ptr, ...) @fprintf(ptr noundef %15, ptr noundef @.str.481, ptr noundef %16, i32 noundef %18) #13
  store i64 0, ptr %7, align 8
  br label %20

20:                                               ; preds = %106, %14
  %21 = load i64, ptr %7, align 8
  %22 = load i64, ptr %6, align 8
  %23 = icmp ult i64 %21, %22
  br i1 %23, label %24, label %109

24:                                               ; preds = %20
  %25 = load ptr, ptr @ssh_debug_file, align 8
  %26 = load i64, ptr %7, align 8
  %27 = trunc i64 %26 to i32
  %28 = call i32 (ptr, ptr, ...) @fprintf(ptr noundef %25, ptr noundef @.str.482, i32 noundef %27) #13
  %29 = load i64, ptr %7, align 8
  store i64 %29, ptr %8, align 8
  store i64 0, ptr %9, align 8
  br label %30

30:                                               ; preds = %47, %24
  %31 = load i64, ptr %9, align 8
  %32 = icmp ult i64 %31, 16
  br i1 %32, label %33, label %37

33:                                               ; preds = %30
  %34 = load i64, ptr %8, align 8
  %35 = load i64, ptr %6, align 8
  %36 = icmp ult i64 %34, %35
  br label %37

37:                                               ; preds = %33, %30
  %38 = phi i1 [ false, %30 ], [ %36, %33 ]
  br i1 %38, label %39, label %52

39:                                               ; preds = %37
  %40 = load ptr, ptr @ssh_debug_file, align 8
  %41 = load ptr, ptr %5, align 8
  %42 = load i64, ptr %8, align 8
  %43 = getelementptr i8, ptr %41, i64 %42
  %44 = load i8, ptr %43, align 1
  %45 = zext i8 %44 to i32
  %46 = call i32 (ptr, ptr, ...) @fprintf(ptr noundef %40, ptr noundef @.str.483, i32 noundef %45) #13
  br label %47

47:                                               ; preds = %39
  %48 = load i64, ptr %8, align 8
  %49 = add i64 %48, 1
  store i64 %49, ptr %8, align 8
  %50 = load i64, ptr %9, align 8
  %51 = add i64 %50, 1
  store i64 %51, ptr %9, align 8
  br label %30, !llvm.loop !15

52:                                               ; preds = %37
  br label %53

53:                                               ; preds = %59, %52
  %54 = load i64, ptr %9, align 8
  %55 = icmp ult i64 %54, 16
  br i1 %55, label %56, label %62

56:                                               ; preds = %53
  %57 = load ptr, ptr @ssh_debug_file, align 8
  %58 = call i32 (ptr, ptr, ...) @fprintf(ptr noundef %57, ptr noundef @.str.484) #13
  br label %59

59:                                               ; preds = %56
  %60 = load i64, ptr %9, align 8
  %61 = add i64 %60, 1
  store i64 %61, ptr %9, align 8
  br label %53, !llvm.loop !16

62:                                               ; preds = %53
  %63 = load ptr, ptr @ssh_debug_file, align 8
  %64 = call i32 @fputc(i32 noundef 32, ptr noundef %63)
  %65 = load i64, ptr %7, align 8
  store i64 %65, ptr %8, align 8
  store i64 0, ptr %9, align 8
  br label %66

66:                                               ; preds = %98, %62
  %67 = load i64, ptr %9, align 8
  %68 = icmp ult i64 %67, 16
  br i1 %68, label %69, label %73

69:                                               ; preds = %66
  %70 = load i64, ptr %8, align 8
  %71 = load i64, ptr %6, align 8
  %72 = icmp ult i64 %70, %71
  br label %73

73:                                               ; preds = %69, %66
  %74 = phi i1 [ false, %66 ], [ %72, %69 ]
  br i1 %74, label %75, label %103

75:                                               ; preds = %73
  %76 = load ptr, ptr %5, align 8
  %77 = load i64, ptr %8, align 8
  %78 = getelementptr i8, ptr %76, i64 %77
  %79 = load i8, ptr %78, align 1
  store i8 %79, ptr %10, align 1
  %80 = load ptr, ptr @g_ascii_table, align 8
  %81 = load i8, ptr %10, align 1
  %82 = zext i8 %81 to i64
  %83 = getelementptr i16, ptr %80, i64 %82
  %84 = load i16, ptr %83, align 2
  %85 = zext i16 %84 to i32
  %86 = and i32 %85, 64
  %87 = icmp ne i32 %86, 0
  br i1 %87, label %88, label %92

88:                                               ; preds = %75
  %89 = load i8, ptr %10, align 1
  %90 = zext i8 %89 to i32
  %91 = icmp eq i32 %90, 9
  br i1 %91, label %92, label %93

92:                                               ; preds = %88, %75
  store i8 46, ptr %10, align 1
  br label %93

93:                                               ; preds = %92, %88
  %94 = load i8, ptr %10, align 1
  %95 = zext i8 %94 to i32
  %96 = load ptr, ptr @ssh_debug_file, align 8
  %97 = call i32 @fputc(i32 noundef %95, ptr noundef %96)
  br label %98

98:                                               ; preds = %93
  %99 = load i64, ptr %8, align 8
  %100 = add i64 %99, 1
  store i64 %100, ptr %8, align 8
  %101 = load i64, ptr %9, align 8
  %102 = add i64 %101, 1
  store i64 %102, ptr %9, align 8
  br label %66, !llvm.loop !17

103:                                              ; preds = %73
  %104 = load ptr, ptr @ssh_debug_file, align 8
  %105 = call i32 (ptr, ptr, ...) @fprintf(ptr noundef %104, ptr noundef @.str.485) #13
  br label %106

106:                                              ; preds = %103
  %107 = load i64, ptr %7, align 8
  %108 = add i64 %107, 16
  store i64 %108, ptr %7, align 8
  br label %20, !llvm.loop !18

109:                                              ; preds = %20, %13
  ret void
}