; Function Attrs: nofree nounwind uwtable
define internal fastcc void @ssh_print_data(ptr noundef %0, ptr noundef readonly captures(none) %1, i64 noundef range(i64 0, 4294967296) %2) unnamed_addr #5 {
  %4 = load ptr, ptr @ssh_debug_file, align 8
  %.not = icmp eq ptr %4, null
  br i1 %.not, label %.loopexit, label %5

5:                                                ; preds = %3
  %6 = trunc nuw i64 %2 to i32
  %7 = tail call i32 (ptr, ptr, ...) @fprintf(ptr noundef nonnull %4, ptr noundef nonnull @.str.481, ptr noundef %0, i32 noundef %6) #21
  %.not44 = icmp eq i64 %2, 0
  br i1 %.not44, label %.loopexit, label %.lr.ph43

.lr.ph43:                                         ; preds = %5
  %8 = load ptr, ptr @g_ascii_table, align 8
  %9 = add nsw i64 %2, -1
  br label %10

10:                                               ; preds = %.lr.ph43, %._crit_edge40
  %indvars.iv = phi i64 [ %9, %.lr.ph43 ], [ %indvars.iv.next, %._crit_edge40 ]
  %.041 = phi i64 [ 0, %.lr.ph43 ], [ %46, %._crit_edge40 ]
  %umin = tail call i64 @llvm.umin.i64(i64 %indvars.iv, i64 15)
  %11 = load ptr, ptr @ssh_debug_file, align 8
  %12 = trunc nuw i64 %.041 to i32
  %13 = tail call i32 (ptr, ptr, ...) @fprintf(ptr noundef %11, ptr noundef nonnull @.str.482, i32 noundef %12) #21
  br label %14

.preheader:                                       ; preds = %14
  br i1 %22, label %.lr.ph, label %.lr.ph39.preheader

14:                                               ; preds = %10, %14
  %.02834 = phi i64 [ 0, %10 ], [ %21, %14 ]
  %.02933 = phi i64 [ %.041, %10 ], [ %20, %14 ]
  %15 = load ptr, ptr @ssh_debug_file, align 8
  %16 = getelementptr i8, ptr %1, i64 %.02933
  %17 = load i8, ptr %16, align 1
  %18 = zext i8 %17 to i32
  %19 = tail call i32 (ptr, ptr, ...) @fprintf(ptr noundef %15, ptr noundef nonnull @.str.483, i32 noundef %18) #21
  %20 = add nuw nsw i64 %.02933, 1
  %21 = add nuw nsw i64 %.02834, 1
  %22 = icmp samesign ult i64 %.02834, 15
  %23 = icmp samesign ult i64 %20, %2
  %24 = select i1 %22, i1 %23, i1 false
  br i1 %24, label %14, label %.preheader, !llvm.loop !22

.lr.ph:                                           ; preds = %.preheader, %.lr.ph
  %.135 = phi i64 [ %27, %.lr.ph ], [ %21, %.preheader ]
  %25 = load ptr, ptr @ssh_debug_file, align 8
  %26 = tail call i64 @fwrite(ptr nonnull @.str.484, i64 3, i64 1, ptr %25)
  %27 = add nuw nsw i64 %.135, 1
  %28 = icmp samesign ult i64 %.135, 15
  br i1 %28, label %.lr.ph, label %.lr.ph39.preheader, !llvm.loop !23

.lr.ph39.preheader:                               ; preds = %.lr.ph, %.preheader
  %29 = load ptr, ptr @ssh_debug_file, align 8
  %30 = tail call i32 @fputc(i32 noundef 32, ptr noundef %29)
  br label %.lr.ph39

.lr.ph39:                                         ; preds = %.lr.ph39.preheader, %.lr.ph39
  %.237 = phi i64 [ %44, %.lr.ph39 ], [ 0, %.lr.ph39.preheader ]
  %.13036 = phi i64 [ %43, %.lr.ph39 ], [ %.041, %.lr.ph39.preheader ]
  %31 = getelementptr i8, ptr %1, i64 %.13036
  %32 = load i8, ptr %31, align 1
  %33 = zext i8 %32 to i64
  %34 = getelementptr i16, ptr %8, i64 %33
  %35 = load i16, ptr %34, align 2
  %36 = and i16 %35, 64
  %37 = icmp eq i16 %36, 0
  %38 = icmp eq i8 %32, 9
  %or.cond = or i1 %38, %37
  %39 = zext i8 %32 to i32
  %40 = select i1 %or.cond, i32 46, i32 %39
  %41 = load ptr, ptr @ssh_debug_file, align 8
  %42 = tail call i32 @fputc(i32 noundef %40, ptr noundef %41)
  %43 = add nuw nsw i64 %.13036, 1
  %44 = add nuw nsw i64 %.237, 1
  %exitcond.not = icmp eq i64 %.237, %umin
  br i1 %exitcond.not, label %._crit_edge40, label %.lr.ph39, !llvm.loop !24

._crit_edge40:                                    ; preds = %.lr.ph39
  %45 = load ptr, ptr @ssh_debug_file, align 8
  %fputc = tail call i32 @fputc(i32 10, ptr %45)
  %46 = add nuw nsw i64 %.041, 16
  %47 = icmp samesign ult i64 %46, %2
  %indvars.iv.next = add nsw i64 %indvars.iv, -16
  br i1 %47, label %10, label %.loopexit, !llvm.loop !25

.loopexit:                                        ; preds = %._crit_edge40, %5, %3
  ret void
}